target datalayout = "e-m:e-p270:32:32-p271:32:32-p272:64:64-i64:64-i128:128-f80:128-n8:16:32:64-S128"
target triple = "x86_64-pc-linux-gnu"

@hf_woww_guid = internal global i32 0, align 4
@.str.6418 = private unnamed_addr constant [12 x i8] c"Packed Guid\00", align 1

; Function Attrs: null_pointer_is_valid sspstrong uwtable
define internal void @add_packed_guid(ptr noundef %0, ptr noundef %1) #0 {
  %3 = alloca ptr, align 8
  %4 = alloca ptr, align 8
  %5 = alloca ptr, align 8
  %6 = alloca ptr, align 8
  %7 = alloca i8, align 1
  %8 = alloca ptr, align 8
  %9 = alloca i32, align 4
  %10 = alloca ptr, align 8
  store ptr %0, ptr %3, align 8
  store ptr %1, ptr %4, align 8
  call void @llvm.lifetime.start.p0(i64 8, ptr %5) #8
  %11 = load ptr, ptr %3, align 8
  %12 = call ptr @ptvcursor_tvbuff(ptr noundef %11)
  store ptr %12, ptr %5, align 8
  call void @llvm.lifetime.start.p0(i64 8, ptr %6) #8
  %13 = load ptr, ptr %3, align 8
  %14 = call ptr @ptvcursor_tree(ptr noundef %13)
  store ptr %14, ptr %6, align 8
  call void @llvm.lifetime.start.p0(i64 1, ptr %7) #8
  %15 = load ptr, ptr %5, align 8
  %16 = load ptr, ptr %3, align 8
  %17 = call i32 @ptvcursor_current_offset(ptr noundef %16)
  %18 = call zeroext i8 @tvb_get_uint8(ptr noundef %15, i32 noundef %17)
  store i8 %18, ptr %7, align 1
  %19 = load ptr, ptr %3, align 8
  call void @ptvcursor_advance(ptr noundef %19, i32 noundef 1)
  call void @llvm.lifetime.start.p0(i64 8, ptr %8) #8
  %20 = call ptr @wmem_packet_scope()
  %21 = call noalias ptr @wmem_alloc(ptr noundef %20, i64 noundef 8) #9
  store ptr %21, ptr %8, align 8
  call void @llvm.lifetime.start.p0(i64 4, ptr %9) #8
  store i32 0, ptr %9, align 4
  br label %22

22:                                               ; preds = %44, %2
  %23 = load i32, ptr %9, align 4
  %24 = icmp slt i32 %23, 8
  br i1 %24, label %26, label %25

25:                                               ; preds = %22
  call void @llvm.lifetime.end.p0(i64 4, ptr %9) #8
  br label %47

26:                                               ; preds = %22
  %27 = load i8, ptr %7, align 1
  %28 = zext i8 %27 to i32
  %29 = load i32, ptr %9, align 4
  %30 = shl i32 1, %29
  %31 = and i32 %28, %30
  %32 = icmp ne i32 %31, 0
  br i1 %32, label %33, label %43

33:                                               ; preds = %26
  %34 = load ptr, ptr %5, align 8
  %35 = load ptr, ptr %3, align 8
  %36 = call i32 @ptvcursor_current_offset(ptr noundef %35)
  %37 = call zeroext i8 @tvb_get_uint8(ptr noundef %34, i32 noundef %36)
  %38 = load ptr, ptr %8, align 8
  %39 = load i32, ptr %9, align 4
  %40 = sext i32 %39 to i64
  %41 = getelementptr i8, ptr %38, i64 %40
  store i8 %37, ptr %41, align 1
  %42 = load ptr, ptr %3, align 8
  call void @ptvcursor_advance(ptr noundef %42, i32 noundef 1)
  br label %43

43:                                               ; preds = %33, %26
  br label %44

44:                                               ; preds = %43
  %45 = load i32, ptr %9, align 4
  %46 = add i32 %45, 1
  store i32 %46, ptr %9, align 4
  br label %22, !llvm.loop !106

47:                                               ; preds = %25
  call void @llvm.lifetime.start.p0(i64 8, ptr %10) #8
  %48 = load ptr, ptr %5, align 8
  %49 = load ptr, ptr %8, align 8
  %50 = call ptr @tvb_new_child_real_data(ptr noundef %48, ptr noundef %49, i32 noundef 8, i32 noundef 8)
  store ptr %50, ptr %10, align 8
  %51 = load ptr, ptr %4, align 8
  %52 = load ptr, ptr %10, align 8
  call void @add_new_data_source(ptr noundef %51, ptr noundef %52, ptr noundef @.str.6418)
  %53 = load ptr, ptr %6, align 8
  %54 = load i32, ptr @hf_woww_guid, align 4
  %55 = load ptr, ptr %10, align 8
  %56 = call ptr @proto_tree_add_item(ptr noundef %53, i32 noundef %54, ptr noundef %55, i32 noundef 0, i32 noundef 8, i32 noundef -2147483648)
  call void @llvm.lifetime.end.p0(i64 8, ptr %10) #8
  call void @llvm.lifetime.end.p0(i64 8, ptr %8) #8
  call void @llvm.lifetime.end.p0(i64 1, ptr %7) #8
  call void @llvm.lifetime.end.p0(i64 8, ptr %6) #8
  call void @llvm.lifetime.end.p0(i64 8, ptr %5) #8
  ret void
}