; Function Attrs: null_pointer_is_valid sspstrong uwtable
define internal fastcc void @add_packed_guid(ptr noundef %0, ptr noundef %1) unnamed_addr #0 {
  %3 = tail call ptr @ptvcursor_tvbuff(ptr noundef %0)
  %4 = tail call ptr @ptvcursor_tree(ptr noundef %0)
  %5 = tail call i32 @ptvcursor_current_offset(ptr noundef %0)
  %6 = tail call zeroext i8 @tvb_get_uint8(ptr noundef %3, i32 noundef %5)
  tail call void @ptvcursor_advance(ptr noundef %0, i32 noundef 1)
  %7 = tail call ptr @wmem_packet_scope()
  %8 = tail call noalias dereferenceable_or_null(8) ptr @wmem_alloc(ptr noundef %7, i64 noundef 8) #5
  %9 = zext i8 %6 to i32
  br label %14

10:                                               ; preds = %22
  %11 = tail call ptr @tvb_new_child_real_data(ptr noundef %3, ptr noundef %8, i32 noundef 8, i32 noundef 8)
  tail call void @add_new_data_source(ptr noundef %1, ptr noundef %11, ptr noundef nonnull @.str.6418)
  %12 = load i32, ptr @hf_woww_guid, align 4
  %13 = tail call ptr @proto_tree_add_item(ptr noundef %4, i32 noundef %12, ptr noundef %11, i32 noundef 0, i32 noundef 8, i32 noundef -2147483648)
  ret void

14:                                               ; preds = %2, %22
  %indvars.iv = phi i64 [ 0, %2 ], [ %indvars.iv.next, %22 ]
  %15 = trunc nuw nsw i64 %indvars.iv to i32
  %16 = shl nuw nsw i32 1, %15
  %17 = and i32 %16, %9
  %.not = icmp eq i32 %17, 0
  br i1 %.not, label %22, label %18

18:                                               ; preds = %14
  %19 = tail call i32 @ptvcursor_current_offset(ptr noundef %0)
  %20 = tail call zeroext i8 @tvb_get_uint8(ptr noundef %3, i32 noundef %19)
  %21 = getelementptr i8, ptr %8, i64 %indvars.iv
  store i8 %20, ptr %21, align 1
  tail call void @ptvcursor_advance(ptr noundef %0, i32 noundef 1)
  br label %22

22:                                               ; preds = %14, %18
  %indvars.iv.next = add nuw nsw i64 %indvars.iv, 1
  %exitcond.not = icmp eq i64 %indvars.iv.next, 8
  br i1 %exitcond.not, label %10, label %14, !llvm.loop !111
}